; Function Attrs: nounwind sspstrong uwtable
define internal fastcc void @io_buffer_write_U32(ptr noundef %0, i64 noundef %1, ptr noundef nonnull captures(none) %2, i64 noundef %3) unnamed_addr #0 {
  %5 = load i64, ptr %2, align 8, !tbaa !22
  %6 = add i64 %5, 4
  %7 = icmp ugt i64 %6, %1
  br i1 %7, label %8, label %io_buffer_validate_type.exit

8:                                                ; preds = %4
  %9 = load i64, ptr @rb_eArgError, align 8, !tbaa !22
  tail call void (i64, ptr, ...) @rb_raise(i64 noundef %9, ptr noundef nonnull @.str.138, i64 noundef %6, i64 noundef %1) #26
  unreachable

io_buffer_validate_type.exit:                     ; preds = %4
  %10 = tail call i64 @rb_num2uint(i64 noundef %3) #25
  %11 = trunc i64 %10 to i32
  %12 = tail call noundef i32 @llvm.bswap.i32(i32 %11)
  %13 = load i64, ptr %2, align 8, !tbaa !22
  %14 = getelementptr i8, ptr %0, i64 %13
  store i32 %12, ptr %14, align 1
  %15 = load i64, ptr %2, align 8, !tbaa !22
  %16 = add i64 %15, 4
  store i64 %16, ptr %2, align 8, !tbaa !22
  ret void
}